target datalayout = "e-m:e-p270:32:32-p271:32:32-p272:64:64-i64:64-i128:128-f80:128-n8:16:32:64-S128"
target triple = "x86_64-pc-linux-gnu"

%struct.H5O_loc_t = type { ptr, i64, i8 }
%struct.H5A_t = type { %struct.H5O_shared_t, %struct.H5O_loc_t, i8, %struct.H5G_name_t, ptr }
%struct.H5O_shared_t = type { i32, ptr, i32, %union.anon }
%union.anon = type { %struct.H5O_mesg_loc_t }
%struct.H5O_mesg_loc_t = type { i32, i64 }
%struct.H5G_name_t = type { ptr, ptr, i32 }
%struct.H5A_shared_t = type { i8, ptr, i32, ptr, i64, ptr, i64, ptr, i64, i32, i32 }
%struct.H5A_attr_iter_op_t = type { i32, %union.anon.1 }
%union.anon.1 = type { ptr }

@.str = private unnamed_addr constant [106 x i8] c"generated/home/dtcxzyw/WorkSpace/Projects/compilers/llvm-opt-benchmark/bench/hdf5/hdf5/src/H5Oattribute.c\00", align 1
@H5E_ATTR_g = external global i64, align 8
@H5E_CANTINIT_g = external global i64, align 8
@H5E_CANTGET_g = external global i64, align 8
@.str.18 = private unnamed_addr constant [35 x i8] c"failed in finding opened attribute\00", align 1
@H5E_CANTCOPY_g = external global i64, align 8
@.str.19 = private unnamed_addr constant [30 x i8] c"can't copy existing attribute\00", align 1
@.str.23 = private unnamed_addr constant [26 x i8] c"invalid datatype location\00", align 1
@H5E_CANTCLOSEOBJ_g = external global i64, align 8
@.str.25 = private unnamed_addr constant [22 x i8] c"can't close attribute\00", align 1
@__func__.H5O__attr_open_by_idx = private unnamed_addr constant [22 x i8] c"H5O__attr_open_by_idx\00", align 1
@H5E_BADITER_g = external global i64, align 8
@.str.26 = private unnamed_addr constant [23 x i8] c"can't locate attribute\00", align 1

; Function Attrs: nounwind uwtable
define ptr @H5O__attr_open_by_idx(ptr noundef %0, i32 noundef %1, i32 noundef %2, i64 noundef %3) #0 {
  %5 = alloca ptr, align 8
  %6 = alloca i32, align 4
  %7 = alloca i32, align 4
  %8 = alloca i64, align 8
  %9 = alloca %struct.H5A_attr_iter_op_t, align 8
  %10 = alloca ptr, align 8
  %11 = alloca ptr, align 8
  %12 = alloca i32, align 4
  %13 = alloca ptr, align 8
  %14 = alloca i8, align 1
  store ptr %0, ptr %5, align 8
  store i32 %1, ptr %6, align 4
  store i32 %2, ptr %7, align 4
  store i64 %3, ptr %8, align 8
  store ptr null, ptr %10, align 8
  store ptr null, ptr %11, align 8
  store i32 0, ptr %12, align 4
  store ptr null, ptr %13, align 8
  store i8 0, ptr %14, align 1
  %15 = getelementptr inbounds %struct.H5A_attr_iter_op_t, ptr %9, i32 0, i32 0
  store i32 2, ptr %15, align 8
  %16 = getelementptr inbounds %struct.H5A_attr_iter_op_t, ptr %9, i32 0, i32 1
  store ptr @H5O__attr_open_by_idx_cb, ptr %16, align 8
  %17 = load ptr, ptr %5, align 8
  %18 = load i32, ptr %6, align 4
  %19 = load i32, ptr %7, align 4
  %20 = load i64, ptr %8, align 8
  %21 = call i32 @H5O_attr_iterate_real(i64 noundef -1, ptr noundef %17, i32 noundef %18, i32 noundef %19, i64 noundef %20, ptr noundef null, ptr noundef %9, ptr noundef %11)
  %22 = icmp slt i32 %21, 0
  br i1 %22, label %23, label %38

23:                                               ; preds = %4
  br label %24

24:                                               ; preds = %23
  br label %25

25:                                               ; preds = %24
  br label %26

26:                                               ; preds = %25
  %27 = load i64, ptr @H5E_ATTR_g, align 8
  %28 = load i64, ptr @H5E_BADITER_g, align 8
  %29 = call i32 (ptr, ptr, i32, i64, i64, ptr, ...) @H5E_printf_stack(ptr noundef @.str, ptr noundef @__func__.H5O__attr_open_by_idx, i32 noundef 584, i64 noundef %27, i64 noundef %28, ptr noundef @.str.26)
  br label %30

30:                                               ; preds = %26
  store i8 1, ptr %14, align 1
  %31 = load i8, ptr %14, align 1
  %32 = trunc i8 %31 to i1
  %33 = zext i1 %32 to i8
  store i8 %33, ptr %14, align 1
  br label %34

34:                                               ; preds = %30
  br label %35

35:                                               ; preds = %34
  store ptr null, ptr %13, align 8
  br label %141

36:                                               ; No predecessors!
  br label %37

37:                                               ; preds = %36
  br label %38

38:                                               ; preds = %37, %4
  %39 = load ptr, ptr %11, align 8
  %40 = icmp ne ptr %39, null
  br i1 %40, label %41, label %139

41:                                               ; preds = %38
  %42 = load ptr, ptr %5, align 8
  %43 = load ptr, ptr %11, align 8
  %44 = getelementptr inbounds %struct.H5A_t, ptr %43, i32 0, i32 4
  %45 = load ptr, ptr %44, align 8
  %46 = getelementptr inbounds %struct.H5A_shared_t, ptr %45, i32 0, i32 1
  %47 = load ptr, ptr %46, align 8
  %48 = call i32 @H5O__attr_find_opened_attr(ptr noundef %42, ptr noundef %10, ptr noundef %47)
  store i32 %48, ptr %12, align 4
  %49 = icmp slt i32 %48, 0
  br i1 %49, label %50, label %65

50:                                               ; preds = %41
  br label %51

51:                                               ; preds = %50
  br label %52

52:                                               ; preds = %51
  br label %53

53:                                               ; preds = %52
  %54 = load i64, ptr @H5E_ATTR_g, align 8
  %55 = load i64, ptr @H5E_CANTGET_g, align 8
  %56 = call i32 (ptr, ptr, i32, i64, i64, ptr, ...) @H5E_printf_stack(ptr noundef @.str, ptr noundef @__func__.H5O__attr_open_by_idx, i32 noundef 591, i64 noundef %54, i64 noundef %55, ptr noundef @.str.18)
  br label %57

57:                                               ; preds = %53
  store i8 1, ptr %14, align 1
  %58 = load i8, ptr %14, align 1
  %59 = trunc i8 %58 to i1
  %60 = zext i1 %59 to i8
  store i8 %60, ptr %14, align 1
  br label %61

61:                                               ; preds = %57
  br label %62

62:                                               ; preds = %61
  store ptr null, ptr %13, align 8
  br label %141

63:                                               ; No predecessors!
  br label %64

64:                                               ; preds = %63
  br label %65

65:                                               ; preds = %64, %41
  %66 = load i32, ptr %12, align 4
  %67 = icmp ne i32 %66, 0
  br i1 %67, label %68, label %110

68:                                               ; preds = %65
  %69 = load ptr, ptr %10, align 8
  %70 = icmp ne ptr %69, null
  br i1 %70, label %71, label %110

71:                                               ; preds = %68
  %72 = load ptr, ptr %11, align 8
  %73 = call i32 @H5A__close(ptr noundef %72)
  %74 = icmp slt i32 %73, 0
  br i1 %74, label %75, label %90

75:                                               ; preds = %71
  br label %76

76:                                               ; preds = %75
  br label %77

77:                                               ; preds = %76
  br label %78

78:                                               ; preds = %77
  %79 = load i64, ptr @H5E_ATTR_g, align 8
  %80 = load i64, ptr @H5E_CANTCLOSEOBJ_g, align 8
  %81 = call i32 (ptr, ptr, i32, i64, i64, ptr, ...) @H5E_printf_stack(ptr noundef @.str, ptr noundef @__func__.H5O__attr_open_by_idx, i32 noundef 598, i64 noundef %79, i64 noundef %80, ptr noundef @.str.25)
  br label %82

82:                                               ; preds = %78
  store i8 1, ptr %14, align 1
  %83 = load i8, ptr %14, align 1
  %84 = trunc i8 %83 to i1
  %85 = zext i1 %84 to i8
  store i8 %85, ptr %14, align 1
  br label %86

86:                                               ; preds = %82
  br label %87

87:                                               ; preds = %86
  store ptr null, ptr %13, align 8
  br label %141

88:                                               ; No predecessors!
  br label %89

89:                                               ; preds = %88
  br label %90

90:                                               ; preds = %89, %71
  %91 = load ptr, ptr %10, align 8
  %92 = call ptr @H5A__copy(ptr noundef null, ptr noundef %91)
  store ptr %92, ptr %11, align 8
  %93 = icmp eq ptr null, %92
  br i1 %93, label %94, label %109

94:                                               ; preds = %90
  br label %95

95:                                               ; preds = %94
  br label %96

96:                                               ; preds = %95
  br label %97

97:                                               ; preds = %96
  %98 = load i64, ptr @H5E_ATTR_g, align 8
  %99 = load i64, ptr @H5E_CANTCOPY_g, align 8
  %100 = call i32 (ptr, ptr, i32, i64, i64, ptr, ...) @H5E_printf_stack(ptr noundef @.str, ptr noundef @__func__.H5O__attr_open_by_idx, i32 noundef 600, i64 noundef %98, i64 noundef %99, ptr noundef @.str.19)
  br label %101

101:                                              ; preds = %97
  store i8 1, ptr %14, align 1
  %102 = load i8, ptr %14, align 1
  %103 = trunc i8 %102 to i1
  %104 = zext i1 %103 to i8
  store i8 %104, ptr %14, align 1
  br label %105

105:                                              ; preds = %101
  br label %106

106:                                              ; preds = %105
  store ptr null, ptr %13, align 8
  br label %141

107:                                              ; No predecessors!
  br label %108

108:                                              ; preds = %107
  br label %109

109:                                              ; preds = %108, %90
  br label %138

110:                                              ; preds = %68, %65
  %111 = load ptr, ptr %11, align 8
  %112 = getelementptr inbounds %struct.H5A_t, ptr %111, i32 0, i32 4
  %113 = load ptr, ptr %112, align 8
  %114 = getelementptr inbounds %struct.H5A_shared_t, ptr %113, i32 0, i32 3
  %115 = load ptr, ptr %114, align 8
  %116 = load ptr, ptr %5, align 8
  %117 = getelementptr inbounds %struct.H5O_loc_t, ptr %116, i32 0, i32 0
  %118 = load ptr, ptr %117, align 8
  %119 = call ptr @H5F_get_vol_obj(ptr noundef %118)
  %120 = call i32 @H5T_set_loc(ptr noundef %115, ptr noundef %119, i32 noundef 2)
  %121 = icmp slt i32 %120, 0
  br i1 %121, label %122, label %137

122:                                              ; preds = %110
  br label %123

123:                                              ; preds = %122
  br label %124

124:                                              ; preds = %123
  br label %125

125:                                              ; preds = %124
  %126 = load i64, ptr @H5E_ATTR_g, align 8
  %127 = load i64, ptr @H5E_CANTINIT_g, align 8
  %128 = call i32 (ptr, ptr, i32, i64, i64, ptr, ...) @H5E_printf_stack(ptr noundef @.str, ptr noundef @__func__.H5O__attr_open_by_idx, i32 noundef 605, i64 noundef %126, i64 noundef %127, ptr noundef @.str.23)
  br label %129

129:                                              ; preds = %125
  store i8 1, ptr %14, align 1
  %130 = load i8, ptr %14, align 1
  %131 = trunc i8 %130 to i1
  %132 = zext i1 %131 to i8
  store i8 %132, ptr %14, align 1
  br label %133

133:                                              ; preds = %129
  br label %134

134:                                              ; preds = %133
  store ptr null, ptr %13, align 8
  br label %141

135:                                              ; No predecessors!
  br label %136

136:                                              ; preds = %135
  br label %137

137:                                              ; preds = %136, %110
  br label %138

138:                                              ; preds = %137, %109
  br label %139

139:                                              ; preds = %138, %38
  %140 = load ptr, ptr %11, align 8
  store ptr %140, ptr %13, align 8
  br label %141

141:                                              ; preds = %139, %134, %106, %87, %62, %35
  %142 = load ptr, ptr %13, align 8
  %143 = icmp eq ptr null, %142
  br i1 %143, label %144, label %165

144:                                              ; preds = %141
  %145 = load ptr, ptr %11, align 8
  %146 = icmp ne ptr %145, null
  br i1 %146, label %147, label %165

147:                                              ; preds = %144
  %148 = load ptr, ptr %11, align 8
  %149 = call i32 @H5A__close(ptr noundef %148)
  %150 = icmp slt i32 %149, 0
  br i1 %150, label %151, label %164

151:                                              ; preds = %147
  br label %152

152:                                              ; preds = %151
  br label %153

153:                                              ; preds = %152
  br label %154

154:                                              ; preds = %153
  %155 = load i64, ptr @H5E_ATTR_g, align 8
  %156 = load i64, ptr @H5E_CANTCLOSEOBJ_g, align 8
  %157 = call i32 (ptr, ptr, i32, i64, i64, ptr, ...) @H5E_printf_stack(ptr noundef @.str, ptr noundef @__func__.H5O__attr_open_by_idx, i32 noundef 616, i64 noundef %155, i64 noundef %156, ptr noundef @.str.25)
  br label %158

158:                                              ; preds = %154
  store i8 1, ptr %14, align 1
  %159 = load i8, ptr %14, align 1
  %160 = trunc i8 %159 to i1
  %161 = zext i1 %160 to i8
  store i8 %161, ptr %14, align 1
  br label %162

162:                                              ; preds = %158
  store ptr null, ptr %13, align 8
  br label %163

163:                                              ; preds = %162
  br label %164

164:                                              ; preds = %163, %147
  br label %165

165:                                              ; preds = %164, %144, %141
  %166 = load ptr, ptr %13, align 8
  ret ptr %166
}