; Function Attrs: nounwind uwtable
define ptr @H5O__attr_open_by_idx(ptr noundef %0, i32 noundef %1, i32 noundef %2, i64 noundef %3) local_unnamed_addr #0 {
  %5 = alloca %struct.H5A_attr_iter_op_t, align 8
  %6 = alloca ptr, align 8
  %7 = alloca ptr, align 8
  store ptr null, ptr %6, align 8
  store ptr null, ptr %7, align 8
  store i32 2, ptr %5, align 8
  %8 = getelementptr inbounds i8, ptr %5, i64 8
  store ptr @H5O__attr_open_by_idx_cb, ptr %8, align 8
  %9 = call i32 @H5O_attr_iterate_real(i64 noundef -1, ptr noundef %0, i32 noundef %1, i32 noundef %2, i64 noundef %3, ptr noundef null, ptr noundef nonnull %5, ptr noundef nonnull %7)
  %10 = icmp slt i32 %9, 0
  br i1 %10, label %11, label %15

11:                                               ; preds = %4
  %12 = load i64, ptr @H5E_ATTR_g, align 8
  %13 = load i64, ptr @H5E_BADITER_g, align 8
  %14 = call i32 (ptr, ptr, i32, i64, i64, ptr, ...) @H5E_printf_stack(ptr noundef nonnull @.str, ptr noundef nonnull @__func__.H5O__attr_open_by_idx, i32 noundef 584, i64 noundef %12, i64 noundef %13, ptr noundef nonnull @.str.26) #9
  br label %60

15:                                               ; preds = %4
  %16 = load ptr, ptr %7, align 8
  %.not = icmp eq ptr %16, null
  br i1 %.not, label %60, label %17

17:                                               ; preds = %15
  %18 = getelementptr inbounds i8, ptr %16, i64 96
  %19 = load ptr, ptr %18, align 8
  %20 = getelementptr inbounds i8, ptr %19, i64 8
  %21 = load ptr, ptr %20, align 8
  %22 = call fastcc i32 @H5O__attr_find_opened_attr(ptr noundef %0, ptr noundef nonnull %6, ptr noundef %21)
  %23 = icmp slt i32 %22, 0
  br i1 %23, label %24, label %28

24:                                               ; preds = %17
  %25 = load i64, ptr @H5E_ATTR_g, align 8
  %26 = load i64, ptr @H5E_CANTGET_g, align 8
  %27 = call i32 (ptr, ptr, i32, i64, i64, ptr, ...) @H5E_printf_stack(ptr noundef nonnull @.str, ptr noundef nonnull @__func__.H5O__attr_open_by_idx, i32 noundef 591, i64 noundef %25, i64 noundef %26, ptr noundef nonnull @.str.18) #9
  br label %60

28:                                               ; preds = %17
  %29 = icmp ne i32 %22, 0
  %30 = load ptr, ptr %6, align 8
  %31 = icmp ne ptr %30, null
  %or.cond = select i1 %29, i1 %31, i1 false
  %32 = load ptr, ptr %7, align 8
  br i1 %or.cond, label %33, label %47

33:                                               ; preds = %28
  %34 = call i32 @H5A__close(ptr noundef %32) #9
  %35 = icmp slt i32 %34, 0
  br i1 %35, label %36, label %40

36:                                               ; preds = %33
  %37 = load i64, ptr @H5E_ATTR_g, align 8
  %38 = load i64, ptr @H5E_CANTCLOSEOBJ_g, align 8
  %39 = call i32 (ptr, ptr, i32, i64, i64, ptr, ...) @H5E_printf_stack(ptr noundef nonnull @.str, ptr noundef nonnull @__func__.H5O__attr_open_by_idx, i32 noundef 598, i64 noundef %37, i64 noundef %38, ptr noundef nonnull @.str.25) #9
  br label %60

40:                                               ; preds = %33
  %41 = call ptr @H5A__copy(ptr noundef null, ptr noundef nonnull %30) #9
  store ptr %41, ptr %7, align 8
  %42 = icmp eq ptr %41, null
  br i1 %42, label %43, label %.thread

43:                                               ; preds = %40
  %44 = load i64, ptr @H5E_ATTR_g, align 8
  %45 = load i64, ptr @H5E_CANTCOPY_g, align 8
  %46 = call i32 (ptr, ptr, i32, i64, i64, ptr, ...) @H5E_printf_stack(ptr noundef nonnull @.str, ptr noundef nonnull @__func__.H5O__attr_open_by_idx, i32 noundef 600, i64 noundef %44, i64 noundef %45, ptr noundef nonnull @.str.19) #9
  br label %60

47:                                               ; preds = %28
  %48 = getelementptr inbounds i8, ptr %32, i64 96
  %49 = load ptr, ptr %48, align 8
  %50 = getelementptr inbounds i8, ptr %49, i64 24
  %51 = load ptr, ptr %50, align 8
  %52 = load ptr, ptr %0, align 8
  %53 = call ptr @H5F_get_vol_obj(ptr noundef %52) #9
  %54 = call i32 @H5T_set_loc(ptr noundef %51, ptr noundef %53, i32 noundef 2) #9
  %55 = icmp slt i32 %54, 0
  br i1 %55, label %56, label %._crit_edge

._crit_edge:                                      ; preds = %47
  %.pre = load ptr, ptr %7, align 8
  br label %60

56:                                               ; preds = %47
  %57 = load i64, ptr @H5E_ATTR_g, align 8
  %58 = load i64, ptr @H5E_CANTINIT_g, align 8
  %59 = call i32 (ptr, ptr, i32, i64, i64, ptr, ...) @H5E_printf_stack(ptr noundef nonnull @.str, ptr noundef nonnull @__func__.H5O__attr_open_by_idx, i32 noundef 605, i64 noundef %57, i64 noundef %58, ptr noundef nonnull @.str.23) #9
  br label %60

60:                                               ; preds = %15, %._crit_edge, %56, %43, %36, %24, %11
  %.0 = phi ptr [ null, %11 ], [ null, %24 ], [ null, %36 ], [ null, %43 ], [ null, %56 ], [ %.pre, %._crit_edge ], [ null, %15 ]
  %61 = icmp eq ptr %.0, null
  %62 = load ptr, ptr %7, align 8
  %63 = icmp ne ptr %62, null
  %or.cond3 = select i1 %61, i1 %63, i1 false
  br i1 %or.cond3, label %64, label %.thread

64:                                               ; preds = %60
  %65 = call i32 @H5A__close(ptr noundef nonnull %62) #9
  %66 = icmp slt i32 %65, 0
  br i1 %66, label %67, label %.thread

67:                                               ; preds = %64
  %68 = load i64, ptr @H5E_ATTR_g, align 8
  %69 = load i64, ptr @H5E_CANTCLOSEOBJ_g, align 8
  %70 = call i32 (ptr, ptr, i32, i64, i64, ptr, ...) @H5E_printf_stack(ptr noundef nonnull @.str, ptr noundef nonnull @__func__.H5O__attr_open_by_idx, i32 noundef 616, i64 noundef %68, i64 noundef %69, ptr noundef nonnull @.str.25) #9
  br label %.thread

.thread:                                          ; preds = %40, %64, %67, %60
  %.022 = phi ptr [ null, %64 ], [ null, %67 ], [ %.0, %60 ], [ %41, %40 ]
  ret ptr %.022
}